target datalayout = "e-m:e-p270:32:32-p271:32:32-p272:64:64-i64:64-i128:128-f80:128-n8:16:32:64-S128"
target triple = "x86_64-pc-linux-gnu"

%struct.unit_conversion = type { [4 x i8], i32, double }

; Function Attrs: nounwind uwtable
define internal void @convert_real_from_base_unit(double noundef %0, i32 noundef %1, ptr noundef %2, ptr noundef %3) #0 {
  %5 = alloca double, align 8
  %6 = alloca i32, align 4
  %7 = alloca ptr, align 8
  %8 = alloca ptr, align 8
  %9 = alloca ptr, align 8
  %10 = alloca i32, align 4
  store double %0, ptr %5, align 8
  store i32 %1, ptr %6, align 4
  store ptr %2, ptr %7, align 8
  store ptr %3, ptr %8, align 8
  call void @llvm.lifetime.start.p0(i64 8, ptr %9) #16
  call void @llvm.lifetime.start.p0(i64 4, ptr %10) #16
  %11 = load ptr, ptr %8, align 8
  store ptr null, ptr %11, align 8
  %12 = load i32, ptr %6, align 4
  %13 = and i32 %12, 251658240
  %14 = icmp ne i32 %13, 0
  br i1 %14, label %15, label %16

15:                                               ; preds = %4
  store ptr @memory_unit_conversion_table, ptr %9, align 8
  br label %17

16:                                               ; preds = %4
  store ptr @time_unit_conversion_table, ptr %9, align 8
  br label %17

17:                                               ; preds = %16, %15
  store i32 0, ptr %10, align 4
  br label %18

18:                                               ; preds = %69, %17
  %19 = load ptr, ptr %9, align 8
  %20 = load i32, ptr %10, align 4
  %21 = sext i32 %20 to i64
  %22 = getelementptr inbounds %struct.unit_conversion, ptr %19, i64 %21
  %23 = getelementptr inbounds nuw %struct.unit_conversion, ptr %22, i32 0, i32 0
  %24 = getelementptr inbounds [4 x i8], ptr %23, i64 0, i64 0
  %25 = load i8, ptr %24, align 8
  %26 = icmp ne i8 %25, 0
  br i1 %26, label %27, label %72

27:                                               ; preds = %18
  %28 = load i32, ptr %6, align 4
  %29 = load ptr, ptr %9, align 8
  %30 = load i32, ptr %10, align 4
  %31 = sext i32 %30 to i64
  %32 = getelementptr inbounds %struct.unit_conversion, ptr %29, i64 %31
  %33 = getelementptr inbounds nuw %struct.unit_conversion, ptr %32, i32 0, i32 1
  %34 = load i32, ptr %33, align 4
  %35 = icmp eq i32 %28, %34
  br i1 %35, label %36, label %68

36:                                               ; preds = %27
  %37 = load double, ptr %5, align 8
  %38 = load ptr, ptr %9, align 8
  %39 = load i32, ptr %10, align 4
  %40 = sext i32 %39 to i64
  %41 = getelementptr inbounds %struct.unit_conversion, ptr %38, i64 %40
  %42 = getelementptr inbounds nuw %struct.unit_conversion, ptr %41, i32 0, i32 2
  %43 = load double, ptr %42, align 8
  %44 = fdiv double %37, %43
  %45 = load ptr, ptr %7, align 8
  store double %44, ptr %45, align 8
  %46 = load ptr, ptr %9, align 8
  %47 = load i32, ptr %10, align 4
  %48 = sext i32 %47 to i64
  %49 = getelementptr inbounds %struct.unit_conversion, ptr %46, i64 %48
  %50 = getelementptr inbounds nuw %struct.unit_conversion, ptr %49, i32 0, i32 0
  %51 = getelementptr inbounds [4 x i8], ptr %50, i64 0, i64 0
  %52 = load ptr, ptr %8, align 8
  store ptr %51, ptr %52, align 8
  %53 = load ptr, ptr %7, align 8
  %54 = load double, ptr %53, align 8
  %55 = fcmp ogt double %54, 0.000000e+00
  br i1 %55, label %56, label %67

56:                                               ; preds = %36
  %57 = load ptr, ptr %7, align 8
  %58 = load double, ptr %57, align 8
  %59 = call double @llvm.rint.f64(double %58)
  %60 = load ptr, ptr %7, align 8
  %61 = load double, ptr %60, align 8
  %62 = fdiv double %59, %61
  %63 = fsub double %62, 1.000000e+00
  %64 = call double @llvm.fabs.f64(double %63)
  %65 = fcmp ole double %64, 1.000000e-08
  br i1 %65, label %66, label %67

66:                                               ; preds = %56
  br label %72

67:                                               ; preds = %56, %36
  br label %68

68:                                               ; preds = %67, %27
  br label %69

69:                                               ; preds = %68
  %70 = load i32, ptr %10, align 4
  %71 = add i32 %70, 1
  store i32 %71, ptr %10, align 4
  br label %18, !llvm.loop !58

72:                                               ; preds = %66, %18
  call void @llvm.lifetime.end.p0(i64 4, ptr %10) #16
  call void @llvm.lifetime.end.p0(i64 8, ptr %9) #16
  ret void
}