; Function Attrs: nofree norecurse nosync nounwind memory(argmem: readwrite) uwtable
define internal fastcc void @convert_real_from_base_unit(double noundef %0, i32 noundef range(i32 1, 2130706433) %1, ptr noundef nonnull captures(none) %2, ptr noundef nonnull writeonly captures(none) initializes((0, 8)) %3) unnamed_addr #21 {
  store ptr null, ptr %3, align 8
  %5 = and i32 %1, 251658240
  %.not = icmp eq i32 %5, 0
  %time_unit_conversion_table.memory_unit_conversion_table = select i1 %.not, ptr @time_unit_conversion_table, ptr @memory_unit_conversion_table
  %6 = load i8, ptr %time_unit_conversion_table.memory_unit_conversion_table, align 16
  %.not1920 = icmp eq i8 %6, 0
  br i1 %.not1920, label %._crit_edge, label %.lr.ph

.lr.ph:                                           ; preds = %4, %23
  %7 = phi ptr [ %26, %23 ], [ %time_unit_conversion_table.memory_unit_conversion_table, %4 ]
  %.021 = phi i32 [ %24, %23 ], [ 0, %4 ]
  %8 = getelementptr inbounds nuw i8, ptr %7, i64 4
  %9 = load i32, ptr %8, align 4
  %10 = icmp eq i32 %1, %9
  br i1 %10, label %11, label %23

11:                                               ; preds = %.lr.ph
  %12 = getelementptr inbounds nuw i8, ptr %7, i64 8
  %13 = load double, ptr %12, align 8
  %14 = fdiv double %0, %13
  store double %14, ptr %2, align 8
  store ptr %7, ptr %3, align 8
  %15 = load double, ptr %2, align 8
  %16 = fcmp ogt double %15, 0.000000e+00
  br i1 %16, label %17, label %23

17:                                               ; preds = %11
  %18 = tail call double @llvm.rint.f64(double %15)
  %19 = fdiv double %18, %15
  %20 = fadd double %19, -1.000000e+00
  %21 = tail call double @llvm.fabs.f64(double %20)
  %22 = fcmp ugt double %21, 1.000000e-08
  br i1 %22, label %23, label %._crit_edge

23:                                               ; preds = %.lr.ph, %17, %11
  %24 = add i32 %.021, 1
  %25 = sext i32 %24 to i64
  %26 = getelementptr inbounds %struct.unit_conversion, ptr %time_unit_conversion_table.memory_unit_conversion_table, i64 %25
  %27 = load i8, ptr %26, align 16
  %.not19 = icmp eq i8 %27, 0
  br i1 %.not19, label %._crit_edge, label %.lr.ph, !llvm.loop !54

._crit_edge:                                      ; preds = %23, %17, %4
  ret void
}